target datalayout = "e-m:e-p270:32:32-p271:32:32-p272:64:64-i64:64-i128:128-f80:128-n8:16:32:64-S128"
target triple = "x86_64-pc-linux-gnu"

%"class.std::locale::id" = type { i64 }
%"class.open3d::core::Dtype" = type { i32, i64, [16 x i8] }
%"class.std::locale" = type { ptr }
%"class.std::locale::_Impl" = type { i32, ptr, i64, ptr, ptr }

@.str.6 = private unnamed_addr constant [131 x i8] c"generated/home/dtcxzyw/WorkSpace/Projects/compilers/llvm-opt-benchmark/bench/open3d/Open3D/cpp/open3d/t/io/file_format/FilePCD.cpp\00", align 1
@_ZN6open3d4core5Dtype4Int8E = external global %"class.open3d::core::Dtype", align 8
@_ZN6open3d4core5Dtype5Int16E = external global %"class.open3d::core::Dtype", align 8
@_ZN6open3d4core5Dtype5Int32E = external global %"class.open3d::core::Dtype", align 8
@_ZN6open3d4core5Dtype5Int64E = external global %"class.open3d::core::Dtype", align 8
@__PRETTY_FUNCTION__._ZN6open3d1t2ioL26GetDtypeFromPCDHeaderFieldEci = private unnamed_addr constant [65 x i8] c"core::Dtype open3d::t::io::GetDtypeFromPCDHeaderField(char, int)\00", align 1
@.str.98 = private unnamed_addr constant [38 x i8] c"Unsupported size {} for data type {}.\00", align 1
@_ZN6open3d4core5Dtype5UInt8E = external global %"class.open3d::core::Dtype", align 8
@_ZN6open3d4core5Dtype6UInt16E = external global %"class.open3d::core::Dtype", align 8
@_ZN6open3d4core5Dtype6UInt32E = external global %"class.open3d::core::Dtype", align 8
@_ZN6open3d4core5Dtype6UInt64E = external global %"class.open3d::core::Dtype", align 8
@_ZN6open3d4core5Dtype7Float32E = external global %"class.open3d::core::Dtype", align 8
@_ZN6open3d4core5Dtype7Float64E = external global %"class.open3d::core::Dtype", align 8
@.str.99 = private unnamed_addr constant [26 x i8] c"Unsupported data type {}.\00", align 1
@_ZNSt5ctypeIcE2idE = external global %"class.std::locale::id", align 8

; Function Attrs: inlinehint mustprogress nounwind ssp uwtable
define available_externally noundef ptr @_ZSt15__try_use_facetISt5ctypeIcEEPKT_RKSt6locale(ptr noundef nonnull align 8 dereferenceable(8) %0) #6 {
  %2 = alloca ptr, align 8
  %3 = alloca i64, align 8
  %4 = alloca ptr, align 8
  store ptr %0, ptr %2, align 8, !tbaa !373
  call void @llvm.lifetime.start.p0(i64 8, ptr %3) #7
  %5 = call noundef i64 @_ZNKSt6locale2id5_M_idEv(ptr noundef nonnull align 8 dereferenceable(8) @_ZNSt5ctypeIcE2idE) #7
  store i64 %5, ptr %3, align 8, !tbaa !30
  call void @llvm.lifetime.start.p0(i64 8, ptr %4) #7
  %6 = load ptr, ptr %2, align 8, !tbaa !373
  %7 = getelementptr inbounds nuw %"class.std::locale", ptr %6, i32 0, i32 0
  %8 = load ptr, ptr %7, align 8, !tbaa !379
  %9 = getelementptr inbounds nuw %"class.std::locale::_Impl", ptr %8, i32 0, i32 1
  %10 = load ptr, ptr %9, align 8, !tbaa !382
  store ptr %10, ptr %4, align 8, !tbaa !385
  %11 = load ptr, ptr %4, align 8, !tbaa !385
  %12 = load i64, ptr %3, align 8, !tbaa !30
  %13 = getelementptr inbounds nuw ptr, ptr %11, i64 %12
  %14 = load ptr, ptr %13, align 8, !tbaa !387
  call void @llvm.lifetime.end.p0(i64 8, ptr %4) #7
  call void @llvm.lifetime.end.p0(i64 8, ptr %3) #7
  ret ptr %14
}

; Function Attrs: mustprogress ssp uwtable
define linkonce_odr noundef signext i8 @_ZNKSt5ctypeIcE7toupperEc(ptr noundef nonnull align 8 dereferenceable(570) %0, i8 noundef signext %1) #3 comdat align 2 {
  %3 = alloca ptr, align 8
  %4 = alloca i8, align 1
  store ptr %0, ptr %3, align 8, !tbaa !1080
  store i8 %1, ptr %4, align 1, !tbaa !20
  %5 = load ptr, ptr %3, align 8
  %6 = load i8, ptr %4, align 1, !tbaa !20
  %7 = load ptr, ptr %5, align 8, !tbaa !182
  %8 = getelementptr inbounds ptr, ptr %7, i64 2
  %9 = load ptr, ptr %8, align 8
  %10 = call noundef signext i8 %9(ptr noundef nonnull align 8 dereferenceable(570) %5, i8 noundef signext %6)
  ret i8 %10
}

; Function Attrs: inlinehint mustprogress ssp uwtable
define available_externally noundef nonnull align 8 dereferenceable(570) ptr @_ZSt9use_facetISt5ctypeIcEERKT_RKSt6locale(ptr noundef nonnull align 8 dereferenceable(8) %0) #17 {
  %2 = alloca ptr, align 8
  %3 = alloca ptr, align 8
  %4 = alloca ptr, align 8
  %5 = alloca i32, align 4
  store ptr %0, ptr %3, align 8, !tbaa !373
  call void @llvm.lifetime.start.p0(i64 8, ptr %4) #7
  %6 = load ptr, ptr %3, align 8, !tbaa !373
  %7 = call noundef ptr @_ZSt15__try_use_facetISt5ctypeIcEEPKT_RKSt6locale(ptr noundef nonnull align 8 dereferenceable(8) %6) #7
  store ptr %7, ptr %4, align 8, !tbaa !1080
  %8 = load ptr, ptr %4, align 8, !tbaa !1080
  %9 = icmp ne ptr %8, null
  br i1 %9, label %10, label %12

10:                                               ; preds = %1
  %11 = load ptr, ptr %4, align 8, !tbaa !1080
  store ptr %11, ptr %2, align 8
  store i32 1, ptr %5, align 4
  br label %13

12:                                               ; preds = %1
  store i32 0, ptr %5, align 4
  br label %13

13:                                               ; preds = %12, %10
  call void @llvm.lifetime.end.p0(i64 8, ptr %4) #7
  %14 = load i32, ptr %5, align 4
  switch i32 %14, label %18 [
    i32 0, label %15
    i32 1, label %16
  ]

15:                                               ; preds = %13
  call void @_ZSt16__throw_bad_castv() #32
  unreachable

16:                                               ; preds = %13
  %17 = load ptr, ptr %2, align 8
  ret ptr %17

18:                                               ; preds = %13
  unreachable
}

; Function Attrs: inlinehint mustprogress ssp uwtable
define linkonce_odr noundef signext i8 @_ZSt7toupperIcET_S0_RKSt6locale(i8 noundef signext %0, ptr noundef nonnull align 8 dereferenceable(8) %1) #17 comdat {
  %3 = alloca i8, align 1
  %4 = alloca ptr, align 8
  store i8 %0, ptr %3, align 1, !tbaa !20
  store ptr %1, ptr %4, align 8, !tbaa !373
  %5 = load ptr, ptr %4, align 8, !tbaa !373
  %6 = call noundef nonnull align 8 dereferenceable(570) ptr @_ZSt9use_facetISt5ctypeIcEERKT_RKSt6locale(ptr noundef nonnull align 8 dereferenceable(8) %5)
  %7 = load i8, ptr %3, align 1, !tbaa !20
  %8 = call noundef signext i8 @_ZNKSt5ctypeIcE7toupperEc(ptr noundef nonnull align 8 dereferenceable(570) %6, i8 noundef signext %7)
  ret i8 %8
}

; Function Attrs: mustprogress ssp uwtable
define internal void @_ZN6open3d1t2ioL26GetDtypeFromPCDHeaderFieldEci(ptr dead_on_unwind noalias writable sret(%"class.open3d::core::Dtype") align 8 %0, i8 noundef signext %1, i32 noundef %2) #3 personality ptr @__gxx_personality_v0 {
  %4 = alloca i8, align 1
  %5 = alloca i32, align 4
  %6 = alloca i8, align 1
  %7 = alloca %"class.std::locale", align 8
  %8 = alloca ptr, align 8
  %9 = alloca i32, align 4
  %10 = alloca i32, align 4
  store i8 %1, ptr %4, align 1, !tbaa !20
  store i32 %2, ptr %5, align 4, !tbaa !121
  call void @llvm.lifetime.start.p0(i64 1, ptr %6) #7
  %11 = load i8, ptr %4, align 1, !tbaa !20
  call void @llvm.lifetime.start.p0(i64 8, ptr %7) #7
  call void @_ZNSt6localeC1Ev(ptr noundef nonnull align 8 dereferenceable(8) %7) #7
  %12 = invoke noundef signext i8 @_ZSt7toupperIcET_S0_RKSt6locale(i8 noundef signext %11, ptr noundef nonnull align 8 dereferenceable(8) %7)
          to label %13 unwind label %21

13:                                               ; preds = %3
  call void @_ZNSt6localeD1Ev(ptr noundef nonnull align 8 dereferenceable(8) %7) #7
  call void @llvm.lifetime.end.p0(i64 8, ptr %7) #7
  store i8 %12, ptr %6, align 1, !tbaa !20
  %14 = load i8, ptr %6, align 1, !tbaa !20
  %15 = sext i8 %14 to i32
  %16 = icmp eq i32 %15, 73
  br i1 %16, label %17, label %38

17:                                               ; preds = %13
  %18 = load i32, ptr %5, align 4, !tbaa !121
  %19 = icmp eq i32 %18, 1
  br i1 %19, label %20, label %25

20:                                               ; preds = %17
  call void @llvm.memcpy.p0.p0.i64(ptr align 8 %0, ptr align 8 @_ZN6open3d4core5Dtype4Int8E, i64 32, i1 false), !tbaa.struct !212
  store i32 1, ptr %10, align 4
  br label %73

21:                                               ; preds = %3
  %22 = landingpad { ptr, i32 }
          cleanup
  %23 = extractvalue { ptr, i32 } %22, 0
  store ptr %23, ptr %8, align 8
  %24 = extractvalue { ptr, i32 } %22, 1
  store i32 %24, ptr %9, align 4
  call void @_ZNSt6localeD1Ev(ptr noundef nonnull align 8 dereferenceable(8) %7) #7
  call void @llvm.lifetime.end.p0(i64 8, ptr %7) #7
  call void @llvm.lifetime.end.p0(i64 1, ptr %6) #7
  br label %74

25:                                               ; preds = %17
  %26 = load i32, ptr %5, align 4, !tbaa !121
  %27 = icmp eq i32 %26, 2
  br i1 %27, label %28, label %29

28:                                               ; preds = %25
  call void @llvm.memcpy.p0.p0.i64(ptr align 8 %0, ptr align 8 @_ZN6open3d4core5Dtype5Int16E, i64 32, i1 false), !tbaa.struct !212
  store i32 1, ptr %10, align 4
  br label %73

29:                                               ; preds = %25
  %30 = load i32, ptr %5, align 4, !tbaa !121
  %31 = icmp eq i32 %30, 4
  br i1 %31, label %32, label %33

32:                                               ; preds = %29
  call void @llvm.memcpy.p0.p0.i64(ptr align 8 %0, ptr align 8 @_ZN6open3d4core5Dtype5Int32E, i64 32, i1 false), !tbaa.struct !212
  store i32 1, ptr %10, align 4
  br label %73

33:                                               ; preds = %29
  %34 = load i32, ptr %5, align 4, !tbaa !121
  %35 = icmp eq i32 %34, 8
  br i1 %35, label %36, label %37

36:                                               ; preds = %33
  call void @llvm.memcpy.p0.p0.i64(ptr align 8 %0, ptr align 8 @_ZN6open3d4core5Dtype5Int64E, i64 32, i1 false), !tbaa.struct !212
  store i32 1, ptr %10, align 4
  br label %73

37:                                               ; preds = %33
  call void @_ZN6open3d7utility6Logger9LogError_IJRiRcEEEvPKciS6_S6_DpOT_(ptr noundef @.str.6, i32 noundef 101, ptr noundef @__PRETTY_FUNCTION__._ZN6open3d1t2ioL26GetDtypeFromPCDHeaderFieldEci, ptr noundef @.str.98, ptr noundef nonnull align 4 dereferenceable(4) %5, ptr noundef nonnull align 1 dereferenceable(1) %4) #32
  unreachable

38:                                               ; preds = %13
  %39 = load i8, ptr %6, align 1, !tbaa !20
  %40 = sext i8 %39 to i32
  %41 = icmp eq i32 %40, 85
  br i1 %41, label %42, label %59

42:                                               ; preds = %38
  %43 = load i32, ptr %5, align 4, !tbaa !121
  %44 = icmp eq i32 %43, 1
  br i1 %44, label %45, label %46

45:                                               ; preds = %42
  call void @llvm.memcpy.p0.p0.i64(ptr align 8 %0, ptr align 8 @_ZN6open3d4core5Dtype5UInt8E, i64 32, i1 false), !tbaa.struct !212
  store i32 1, ptr %10, align 4
  br label %73

46:                                               ; preds = %42
  %47 = load i32, ptr %5, align 4, !tbaa !121
  %48 = icmp eq i32 %47, 2
  br i1 %48, label %49, label %50

49:                                               ; preds = %46
  call void @llvm.memcpy.p0.p0.i64(ptr align 8 %0, ptr align 8 @_ZN6open3d4core5Dtype6UInt16E, i64 32, i1 false), !tbaa.struct !212
  store i32 1, ptr %10, align 4
  br label %73

50:                                               ; preds = %46
  %51 = load i32, ptr %5, align 4, !tbaa !121
  %52 = icmp eq i32 %51, 4
  br i1 %52, label %53, label %54

53:                                               ; preds = %50
  call void @llvm.memcpy.p0.p0.i64(ptr align 8 %0, ptr align 8 @_ZN6open3d4core5Dtype6UInt32E, i64 32, i1 false), !tbaa.struct !212
  store i32 1, ptr %10, align 4
  br label %73

54:                                               ; preds = %50
  %55 = load i32, ptr %5, align 4, !tbaa !121
  %56 = icmp eq i32 %55, 8
  br i1 %56, label %57, label %58

57:                                               ; preds = %54
  call void @llvm.memcpy.p0.p0.i64(ptr align 8 %0, ptr align 8 @_ZN6open3d4core5Dtype6UInt64E, i64 32, i1 false), !tbaa.struct !212
  store i32 1, ptr %10, align 4
  br label %73

58:                                               ; preds = %54
  call void @_ZN6open3d7utility6Logger9LogError_IJRiRcEEEvPKciS6_S6_DpOT_(ptr noundef @.str.6, i32 noundef 110, ptr noundef @__PRETTY_FUNCTION__._ZN6open3d1t2ioL26GetDtypeFromPCDHeaderFieldEci, ptr noundef @.str.98, ptr noundef nonnull align 4 dereferenceable(4) %5, ptr noundef nonnull align 1 dereferenceable(1) %4) #32
  unreachable

59:                                               ; preds = %38
  %60 = load i8, ptr %6, align 1, !tbaa !20
  %61 = sext i8 %60 to i32
  %62 = icmp eq i32 %61, 70
  br i1 %62, label %63, label %72

63:                                               ; preds = %59
  %64 = load i32, ptr %5, align 4, !tbaa !121
  %65 = icmp eq i32 %64, 4
  br i1 %65, label %66, label %67

66:                                               ; preds = %63
  call void @llvm.memcpy.p0.p0.i64(ptr align 8 %0, ptr align 8 @_ZN6open3d4core5Dtype7Float32E, i64 32, i1 false), !tbaa.struct !212
  store i32 1, ptr %10, align 4
  br label %73

67:                                               ; preds = %63
  %68 = load i32, ptr %5, align 4, !tbaa !121
  %69 = icmp eq i32 %68, 8
  br i1 %69, label %70, label %71

70:                                               ; preds = %67
  call void @llvm.memcpy.p0.p0.i64(ptr align 8 %0, ptr align 8 @_ZN6open3d4core5Dtype7Float64E, i64 32, i1 false), !tbaa.struct !212
  store i32 1, ptr %10, align 4
  br label %73

71:                                               ; preds = %67
  call void @_ZN6open3d7utility6Logger9LogError_IJRiRcEEEvPKciS6_S6_DpOT_(ptr noundef @.str.6, i32 noundef 117, ptr noundef @__PRETTY_FUNCTION__._ZN6open3d1t2ioL26GetDtypeFromPCDHeaderFieldEci, ptr noundef @.str.98, ptr noundef nonnull align 4 dereferenceable(4) %5, ptr noundef nonnull align 1 dereferenceable(1) %4) #32
  unreachable

72:                                               ; preds = %59
  call void @_ZN6open3d7utility6Logger9LogError_IJRcEEEvPKciS5_S5_DpOT_(ptr noundef @.str.6, i32 noundef 119, ptr noundef @__PRETTY_FUNCTION__._ZN6open3d1t2ioL26GetDtypeFromPCDHeaderFieldEci, ptr noundef @.str.99, ptr noundef nonnull align 1 dereferenceable(1) %4) #32
  unreachable

73:                                               ; preds = %70, %66, %57, %53, %49, %45, %36, %32, %28, %20
  call void @llvm.lifetime.end.p0(i64 1, ptr %6) #7
  ret void

74:                                               ; preds = %21
  %75 = load ptr, ptr %8, align 8
  %76 = load i32, ptr %9, align 4
  %77 = insertvalue { ptr, i32 } poison, ptr %75, 0
  %78 = insertvalue { ptr, i32 } %77, i32 %76, 1
  resume { ptr, i32 } %78
}