; Function Attrs: mustprogress ssp uwtable
define internal fastcc void @_ZN6open3d1t2ioL26GetDtypeFromPCDHeaderFieldEci(ptr dead_on_unwind noalias nonnull writable writeonly align 8 captures(none) %0, i8 noundef signext %1, i32 noundef %2) unnamed_addr #4 personality ptr @__gxx_personality_v0 {
  %4 = alloca i8, align 1
  %5 = alloca i32, align 4
  %6 = alloca %"class.std::locale", align 8
  store i8 %1, ptr %4, align 1, !tbaa !43
  store i32 %2, ptr %5, align 4, !tbaa !28
  call void @llvm.lifetime.start.p0(i64 8, ptr nonnull %6) #30
  call void @_ZNSt6localeC1Ev(ptr noundef nonnull align 8 dereferenceable(8) %6) #30
  %7 = call noundef i64 @_ZNKSt6locale2id5_M_idEv(ptr noundef nonnull align 8 dereferenceable(8) @_ZNSt5ctypeIcE2idE) #30
  %8 = load ptr, ptr %6, align 8, !tbaa !191
  %9 = getelementptr inbounds nuw i8, ptr %8, i64 8
  %10 = load ptr, ptr %9, align 8, !tbaa !194
  %11 = getelementptr inbounds nuw ptr, ptr %10, i64 %7
  %12 = load ptr, ptr %11, align 8, !tbaa !198
  %.not.not.i.i = icmp eq ptr %12, null
  br i1 %.not.not.i.i, label %13, label %_ZSt9use_facetISt5ctypeIcEERKT_RKSt6locale.exit.i

13:                                               ; preds = %3
  invoke void @_ZSt16__throw_bad_castv() #38
          to label %.noexc unwind label %20

.noexc:                                           ; preds = %13
  unreachable

_ZSt9use_facetISt5ctypeIcEERKT_RKSt6locale.exit.i: ; preds = %3
  %14 = load ptr, ptr %12, align 8, !tbaa !52
  %15 = getelementptr inbounds nuw i8, ptr %14, i64 16
  %16 = load ptr, ptr %15, align 8
  %17 = invoke noundef signext i8 %16(ptr noundef nonnull align 8 dereferenceable(570) %12, i8 noundef signext %1)
          to label %_ZSt7toupperIcET_S0_RKSt6locale.exit unwind label %20

_ZSt7toupperIcET_S0_RKSt6locale.exit:             ; preds = %_ZSt9use_facetISt5ctypeIcEERKT_RKSt6locale.exit.i
  call void @_ZNSt6localeD1Ev(ptr noundef nonnull align 8 dereferenceable(8) %6) #30
  call void @llvm.lifetime.end.p0(i64 8, ptr nonnull %6) #30
  switch i8 %17, label %36 [
    i8 73, label %18
    i8 85, label %26
    i8 70, label %32
  ]

18:                                               ; preds = %_ZSt7toupperIcET_S0_RKSt6locale.exit
  switch i32 %2, label %25 [
    i32 1, label %19
    i32 2, label %22
    i32 4, label %23
    i32 8, label %24
  ]

19:                                               ; preds = %18
  call void @llvm.memcpy.p0.p0.i64(ptr noundef nonnull align 8 dereferenceable(32) %0, ptr noundef nonnull align 8 dereferenceable(32) @_ZN6open3d4core5Dtype4Int8E, i64 32, i1 false), !tbaa.struct !141
  br label %37

20:                                               ; preds = %_ZSt9use_facetISt5ctypeIcEERKT_RKSt6locale.exit.i, %13
  %21 = landingpad { ptr, i32 }
          cleanup
  call void @_ZNSt6localeD1Ev(ptr noundef nonnull align 8 dereferenceable(8) %6) #30
  call void @llvm.lifetime.end.p0(i64 8, ptr nonnull %6) #30
  resume { ptr, i32 } %21

22:                                               ; preds = %18
  call void @llvm.memcpy.p0.p0.i64(ptr noundef nonnull align 8 dereferenceable(32) %0, ptr noundef nonnull align 8 dereferenceable(32) @_ZN6open3d4core5Dtype5Int16E, i64 32, i1 false), !tbaa.struct !141
  br label %37

23:                                               ; preds = %18
  call void @llvm.memcpy.p0.p0.i64(ptr noundef nonnull align 8 dereferenceable(32) %0, ptr noundef nonnull align 8 dereferenceable(32) @_ZN6open3d4core5Dtype5Int32E, i64 32, i1 false), !tbaa.struct !141
  br label %37

24:                                               ; preds = %18
  call void @llvm.memcpy.p0.p0.i64(ptr noundef nonnull align 8 dereferenceable(32) %0, ptr noundef nonnull align 8 dereferenceable(32) @_ZN6open3d4core5Dtype5Int64E, i64 32, i1 false), !tbaa.struct !141
  br label %37

25:                                               ; preds = %18
  call void @_ZN6open3d7utility6Logger9LogError_IJRiRcEEEvPKciS6_S6_DpOT_(ptr noundef nonnull @.str.6, i32 noundef 101, ptr noundef nonnull @__PRETTY_FUNCTION__._ZN6open3d1t2ioL26GetDtypeFromPCDHeaderFieldEci, ptr noundef nonnull @.str.98, ptr noundef nonnull align 4 dereferenceable(4) %5, ptr noundef nonnull align 1 dereferenceable(1) %4) #38
  unreachable

26:                                               ; preds = %_ZSt7toupperIcET_S0_RKSt6locale.exit
  switch i32 %2, label %31 [
    i32 1, label %27
    i32 2, label %28
    i32 4, label %29
    i32 8, label %30
  ]

27:                                               ; preds = %26
  call void @llvm.memcpy.p0.p0.i64(ptr noundef nonnull align 8 dereferenceable(32) %0, ptr noundef nonnull align 8 dereferenceable(32) @_ZN6open3d4core5Dtype5UInt8E, i64 32, i1 false), !tbaa.struct !141
  br label %37

28:                                               ; preds = %26
  call void @llvm.memcpy.p0.p0.i64(ptr noundef nonnull align 8 dereferenceable(32) %0, ptr noundef nonnull align 8 dereferenceable(32) @_ZN6open3d4core5Dtype6UInt16E, i64 32, i1 false), !tbaa.struct !141
  br label %37

29:                                               ; preds = %26
  call void @llvm.memcpy.p0.p0.i64(ptr noundef nonnull align 8 dereferenceable(32) %0, ptr noundef nonnull align 8 dereferenceable(32) @_ZN6open3d4core5Dtype6UInt32E, i64 32, i1 false), !tbaa.struct !141
  br label %37

30:                                               ; preds = %26
  call void @llvm.memcpy.p0.p0.i64(ptr noundef nonnull align 8 dereferenceable(32) %0, ptr noundef nonnull align 8 dereferenceable(32) @_ZN6open3d4core5Dtype6UInt64E, i64 32, i1 false), !tbaa.struct !141
  br label %37

31:                                               ; preds = %26
  call void @_ZN6open3d7utility6Logger9LogError_IJRiRcEEEvPKciS6_S6_DpOT_(ptr noundef nonnull @.str.6, i32 noundef 110, ptr noundef nonnull @__PRETTY_FUNCTION__._ZN6open3d1t2ioL26GetDtypeFromPCDHeaderFieldEci, ptr noundef nonnull @.str.98, ptr noundef nonnull align 4 dereferenceable(4) %5, ptr noundef nonnull align 1 dereferenceable(1) %4) #38
  unreachable

32:                                               ; preds = %_ZSt7toupperIcET_S0_RKSt6locale.exit
  switch i32 %2, label %35 [
    i32 4, label %33
    i32 8, label %34
  ]

33:                                               ; preds = %32
  call void @llvm.memcpy.p0.p0.i64(ptr noundef nonnull align 8 dereferenceable(32) %0, ptr noundef nonnull align 8 dereferenceable(32) @_ZN6open3d4core5Dtype7Float32E, i64 32, i1 false), !tbaa.struct !141
  br label %37

34:                                               ; preds = %32
  call void @llvm.memcpy.p0.p0.i64(ptr noundef nonnull align 8 dereferenceable(32) %0, ptr noundef nonnull align 8 dereferenceable(32) @_ZN6open3d4core5Dtype7Float64E, i64 32, i1 false), !tbaa.struct !141
  br label %37

35:                                               ; preds = %32
  call void @_ZN6open3d7utility6Logger9LogError_IJRiRcEEEvPKciS6_S6_DpOT_(ptr noundef nonnull @.str.6, i32 noundef 117, ptr noundef nonnull @__PRETTY_FUNCTION__._ZN6open3d1t2ioL26GetDtypeFromPCDHeaderFieldEci, ptr noundef nonnull @.str.98, ptr noundef nonnull align 4 dereferenceable(4) %5, ptr noundef nonnull align 1 dereferenceable(1) %4) #38
  unreachable

36:                                               ; preds = %_ZSt7toupperIcET_S0_RKSt6locale.exit
  call void @_ZN6open3d7utility6Logger9LogError_IJRcEEEvPKciS5_S5_DpOT_(ptr noundef nonnull @.str.6, i32 noundef 119, ptr noundef nonnull @__PRETTY_FUNCTION__._ZN6open3d1t2ioL26GetDtypeFromPCDHeaderFieldEci, ptr noundef nonnull @.str.99, ptr noundef nonnull align 1 dereferenceable(1) %4) #38
  unreachable

37:                                               ; preds = %34, %33, %30, %29, %28, %27, %24, %23, %22, %19
  ret void
}